target datalayout = "e-m:e-p270:32:32-p271:32:32-p272:64:64-i64:64-i128:128-f80:128-n8:16:32:64-S128"
target triple = "x86_64-unknown-linux-gnu"

%class.symbol = type { ptr }
%class.ptr_vector = type { %class.vector.0 }
%class.vector.0 = type { ptr }
%class.ref_vector = type { %class.ref_vector_core }
%class.ref_vector_core = type { %class.ref_manager_wrapper, %class.ptr_vector.3 }
%class.ref_manager_wrapper = type { ptr }
%class.ptr_vector.3 = type { %class.vector.4 }
%class.vector.4 = type { ptr }
%class.obj_ref.50 = type { ptr, ptr }
%class.ast = type { i32, i24, i32, i32 }
%"class.datalog::context" = type <{ ptr, ptr, ptr, %class.params_ref, ptr, i8, i8, [6 x i8], %class.symbol, %"class.datalog::dl_decl_util", %class.th_rewriter, %class.var_subst, %"class.datalog::rule_manager", %"class.datalog::context::contains_pred", %"class.datalog::rule_properties", %"class.datalog::rule_transformer", %class.trail_stack, %class.ref_vector.85, %class.bind_variables, %class.obj_map.121, %class.obj_hashtable.126, %class.map.132, %class.obj_map.136, %"class.datalog::rule_set", %"class.datalog::rule_set", %class.expr_free_vars, i32, [4 x i8], %class.ref_vector.39, %class.svector.13, %class.vector.160, %class.ref_vector.39, %class.ref, %class.ref.161, ptr, %class.scoped_ptr.162, i8, i8, i8, i8, i32, %class.obj_ref.49, %class.obj_ref.49, i32, [4 x i8] }>
%class.params_ref = type { ptr }
%"class.datalog::dl_decl_util" = type <{ ptr, %class.scoped_ptr.33, %class.scoped_ptr.34, i32, [4 x i8] }>
%class.scoped_ptr.33 = type { ptr }
%class.scoped_ptr.34 = type { ptr }
%class.th_rewriter = type { ptr, %class.params_ref }
%class.var_subst = type { %class.beta_reducer, i8, [7 x i8] }
%class.beta_reducer = type <{ %class.rewriter_tpl, %struct.beta_reducer_cfg, [7 x i8] }>
%class.rewriter_tpl = type { %class.rewriter_core, ptr, i32, %class.ptr_vector.42, %class.var_shifter, %class.inv_var_shifter, %class.obj_ref.49, %class.obj_ref.50, %class.obj_ref.50, %class.svector }
%class.rewriter_core = type { ptr, ptr, i8, i8, %class.ptr_vector.35, ptr, %class.svector.37, %class.ref_vector.39, %class.ptr_vector.35, ptr, %class.ref_vector, %class.obj_hashtable, ptr, i32, %class.svector.47 }
%class.svector.37 = type { %class.vector.38 }
%class.vector.38 = type { ptr }
%class.ptr_vector.35 = type { %class.vector.36 }
%class.vector.36 = type { ptr }
%class.obj_hashtable = type { %class.core_hashtable.base.46, [4 x i8] }
%class.core_hashtable.base.46 = type <{ ptr, i32, i32, i32 }>
%class.svector.47 = type { %class.vector.48 }
%class.vector.48 = type { ptr }
%class.ptr_vector.42 = type { %class.vector.43 }
%class.vector.43 = type { ptr }
%class.var_shifter = type <{ %class.var_shifter_core, i32, i32, i32, [4 x i8] }>
%class.var_shifter_core = type { %class.rewriter_core }
%class.inv_var_shifter = type <{ %class.var_shifter_core, i32, [4 x i8] }>
%class.svector = type { %class.vector.5 }
%class.vector.5 = type { ptr }
%struct.beta_reducer_cfg = type { i8 }
%"class.datalog::rule_manager" = type { ptr, ptr, %"class.datalog::rule_counter", %class.used_vars, %class.uint_set, %class.expr_free_vars, %class.ref_vector, %class.obj_ref.50, %class.ref_vector.39, %class.svector.62, %class.hnf, %class.qe_lite, %class.label_rewriter, %"struct.datalog::uninterpreted_function_finder_proc", %"struct.datalog::quantifier_finder_proc", [5 x i8], %class.expr_sparse_mark, %"struct.datalog::fd_finder_proc" }
%"class.datalog::rule_counter" = type { %class.var_counter }
%class.var_counter = type { %class.counter, %class.ast_fast_mark, %class.expr_free_vars, %class.ptr_vector.42, %class.svector }
%class.counter = type { %class.u_map.51 }
%class.u_map.51 = type { %class.map.52 }
%class.map.52 = type { %class.table2map.53 }
%class.table2map.53 = type { %class.core_hashtable.54 }
%class.core_hashtable.54 = type <{ ptr, i32, i32, i32, [4 x i8] }>
%class.ast_fast_mark = type { %class.ptr_buffer }
%class.ptr_buffer = type { %class.buffer }
%class.buffer = type { ptr, i32, i32, [16 x %"union.std::aligned_storage<8, 8>::type"] }
%"union.std::aligned_storage<8, 8>::type" = type { [8 x i8] }
%class.used_vars = type { %class.ptr_vector, %class.hashtable, %class.svector.60, i32, i32 }
%class.hashtable = type { %class.core_hashtable.base.59, [4 x i8] }
%class.core_hashtable.base.59 = type <{ ptr, i32, i32, i32 }>
%class.svector.60 = type { %class.vector.61 }
%class.vector.61 = type { ptr }
%class.uint_set = type { %class.svector }
%class.svector.62 = type { %class.vector.63 }
%class.vector.63 = type { ptr }
%class.hnf = type { ptr }
%class.qe_lite = type { ptr }
%class.label_rewriter = type { i32, %class.rewriter_tpl.64 }
%class.rewriter_tpl.64 = type { %class.rewriter_core, ptr, i32, %class.ptr_vector.42, %class.var_shifter, %class.inv_var_shifter, %class.obj_ref.49, %class.obj_ref.50, %class.obj_ref.50, %class.svector }
%"struct.datalog::uninterpreted_function_finder_proc" = type { ptr, %"class.datatype::util", %"class.datalog::dl_decl_util", i8, ptr }
%"class.datatype::util" = type { ptr, i32, ptr, %class.obj_map.65, %class.obj_map.70, %class.obj_map.75, %class.obj_map.28, %class.obj_map.28, %class.obj_map.28, %class.obj_map.80, %class.obj_map.80, %class.obj_map.80, %class.ref_vector.85, %class.ref_vector_core.90, %class.ptr_vector.93, i32, %class.ptr_vector }
%class.obj_map.65 = type { %class.core_hashtable.66 }
%class.core_hashtable.66 = type <{ ptr, i32, i32, i32, [4 x i8] }>
%class.obj_map.70 = type { %class.core_hashtable.71 }
%class.core_hashtable.71 = type <{ ptr, i32, i32, i32, [4 x i8] }>
%class.obj_map.75 = type { %class.core_hashtable.76 }
%class.core_hashtable.76 = type <{ ptr, i32, i32, i32, [4 x i8] }>
%class.obj_map.28 = type { %class.core_hashtable.29 }
%class.core_hashtable.29 = type <{ ptr, i32, i32, i32, [4 x i8] }>
%class.obj_map.80 = type { %class.core_hashtable.81 }
%class.core_hashtable.81 = type <{ ptr, i32, i32, i32, [4 x i8] }>
%class.ref_vector_core.90 = type { %class.ptr_vector.91 }
%class.ptr_vector.91 = type { %class.vector.92 }
%class.vector.92 = type { ptr }
%class.ptr_vector.93 = type { %class.vector.94 }
%class.vector.94 = type { ptr }
%"struct.datalog::quantifier_finder_proc" = type { i8, i8, i8 }
%class.expr_sparse_mark = type { %class.obj_hashtable }
%"struct.datalog::fd_finder_proc" = type <{ ptr, %class.bv_util, i8, [7 x i8] }>
%class.bv_util = type { %class.bv_recognizers, ptr, ptr }
%class.bv_recognizers = type { i32 }
%"class.datalog::context::contains_pred" = type { %class.i_expr_pred, ptr }
%class.i_expr_pred = type { ptr }
%"class.datalog::rule_properties" = type <{ ptr, ptr, ptr, ptr, %"class.datatype::util", %"class.datalog::dl_decl_util", %class.arith_util, %class.bv_util, %class.array_util, %"class.recfun::util", i8, [7 x i8], ptr, %class.obj_map.95, %class.obj_map.100, %class.ptr_vector.105, %class.ptr_vector.105, %class.ptr_vector.105, i8, i8, [6 x i8] }>
%class.arith_util = type { ptr, ptr }
%class.array_util = type { %class.array_recognizers, ptr }
%class.array_recognizers = type { i32 }
%"class.recfun::util" = type { ptr, i32, ptr }
%class.obj_map.95 = type { %class.core_hashtable.96 }
%class.core_hashtable.96 = type <{ ptr, i32, i32, i32, [4 x i8] }>
%class.obj_map.100 = type { %class.core_hashtable.101 }
%class.core_hashtable.101 = type <{ ptr, i32, i32, i32, [4 x i8] }>
%class.ptr_vector.105 = type { %class.vector.106 }
%class.vector.106 = type { ptr }
%"class.datalog::rule_transformer" = type { ptr, ptr, i8, %class.svector.107 }
%class.svector.107 = type { %class.vector.108 }
%class.vector.108 = type { ptr }
%class.trail_stack = type { %class.ptr_vector.109, %class.svector, %class.region }
%class.ptr_vector.109 = type { %class.vector.110 }
%class.vector.110 = type { ptr }
%class.region = type { ptr, ptr, ptr, ptr, ptr }
%class.ref_vector.85 = type { %class.ref_vector_core.86 }
%class.ref_vector_core.86 = type { %class.ref_manager_wrapper.87, %class.ptr_vector.88 }
%class.ref_manager_wrapper.87 = type { ptr }
%class.ptr_vector.88 = type { %class.vector.89 }
%class.vector.89 = type { ptr }
%class.bind_variables = type { ptr, %class.ref_vector, %class.obj_map.111, %class.obj_map.116, %class.ref_vector.39, %class.ptr_vector, %class.svector.13, %class.ptr_vector.42, %class.ptr_vector.42 }
%class.obj_map.111 = type { %class.core_hashtable.112 }
%class.core_hashtable.112 = type <{ ptr, i32, i32, i32, [4 x i8] }>
%class.obj_map.116 = type { %class.core_hashtable.117 }
%class.core_hashtable.117 = type <{ ptr, i32, i32, i32, [4 x i8] }>
%class.obj_map.121 = type { %class.core_hashtable.122 }
%class.core_hashtable.122 = type <{ ptr, i32, i32, i32, [4 x i8] }>
%class.obj_hashtable.126 = type { %class.core_hashtable.base.130, [4 x i8] }
%class.core_hashtable.base.130 = type <{ ptr, i32, i32, i32 }>
%class.map.132 = type { %class.table2map.133 }
%class.table2map.133 = type { %class.core_hashtable.134 }
%class.core_hashtable.134 = type <{ ptr, i32, i32, i32, [4 x i8] }>
%class.obj_map.136 = type { %class.core_hashtable.137 }
%class.core_hashtable.137 = type <{ ptr, i32, i32, i32, [4 x i8] }>
%"class.datalog::rule_set" = type { ptr, ptr, %class.ref_vector.141, %class.obj_map.144, %"class.datalog::rule_dependencies", %class.scoped_ptr.154, %class.obj_hashtable.126, %class.obj_map.28, %class.obj_map.28, %class.ref_vector.155, %class.ptr_vector.105 }
%class.ref_vector.141 = type { %class.ref_vector_core.142 }
%class.ref_vector_core.142 = type { %class.ref_manager_wrapper.143, %class.ptr_vector.105 }
%class.ref_manager_wrapper.143 = type { ptr }
%class.obj_map.144 = type { %class.core_hashtable.145 }
%class.core_hashtable.145 = type <{ ptr, i32, i32, i32, [4 x i8] }>
%"class.datalog::rule_dependencies" = type { %class.obj_map.149, ptr, %class.ptr_vector.42, %class.expr_sparse_mark, %class.obj_hashtable.126 }
%class.obj_map.149 = type { %class.core_hashtable.150 }
%class.core_hashtable.150 = type <{ ptr, i32, i32, i32, [4 x i8] }>
%class.scoped_ptr.154 = type { ptr }
%class.ref_vector.155 = type { %class.ref_vector_core.156 }
%class.ref_vector_core.156 = type { %class.ref_manager_wrapper.157, %class.ptr_vector.158 }
%class.ref_manager_wrapper.157 = type { ptr }
%class.ptr_vector.158 = type { %class.vector.159 }
%class.vector.159 = type { ptr }
%class.expr_free_vars = type { %class.expr_sparse_mark, %class.ptr_vector, %class.ptr_vector.42 }
%class.svector.13 = type { %class.vector.14 }
%class.vector.14 = type { ptr }
%class.vector.160 = type { ptr }
%class.ref_vector.39 = type { %class.ref_vector_core.40 }
%class.ref_vector_core.40 = type { %class.ref_manager_wrapper.41, %class.ptr_vector.42 }
%class.ref_manager_wrapper.41 = type { ptr }
%class.ref = type { ptr }
%class.ref.161 = type { ptr }
%class.scoped_ptr.162 = type { ptr }
%class.obj_ref.49 = type { ptr, ptr }
%class.obj_ref.201 = type { ptr, ptr }

@.str = private unnamed_addr constant [8 x i8] c"e_union\00", align 1

; Function Attrs: mustprogress nounwind uwtable
define linkonce_odr hidden void @_ZN3ast7inc_refEv(ptr noundef nonnull align 4 dereferenceable(16) %this) #5 comdat align 2 {
entry:
  %this.addr = alloca ptr, align 8
  store ptr %this, ptr %this.addr, align 8
  %this1 = load ptr, ptr %this.addr, align 8
  %m_ref_count = getelementptr inbounds %class.ast, ptr %this1, i32 0, i32 2
  %0 = load i32, ptr %m_ref_count, align 4
  %inc = add i32 %0, 1
  store i32 %inc, ptr %m_ref_count, align 4
  ret void
}

; Function Attrs: mustprogress uwtable
define linkonce_odr hidden void @_ZN11ast_manager7inc_refEP3ast(ptr noundef nonnull align 8 dereferenceable(976) %this, ptr noundef %n) #4 comdat align 2 {
entry:
  %this.addr = alloca ptr, align 8
  %n.addr = alloca ptr, align 8
  store ptr %this, ptr %this.addr, align 8
  store ptr %n, ptr %n.addr, align 8
  %0 = load ptr, ptr %n.addr, align 8
  %tobool = icmp ne ptr %0, null
  br i1 %tobool, label %if.then, label %if.end

if.then:                                          ; preds = %entry
  %1 = load ptr, ptr %n.addr, align 8
  call void @_ZN3ast7inc_refEv(ptr noundef nonnull align 4 dereferenceable(16) %1)
  br label %if.end

if.end:                                           ; preds = %if.then, %entry
  ret void
}

; Function Attrs: mustprogress uwtable
define linkonce_odr hidden noundef ptr @_ZN11ast_manager12mk_func_declERK6symboljPKP4sortS4_(ptr noundef nonnull align 8 dereferenceable(976) %this, ptr noundef nonnull align 8 dereferenceable(8) %name, i32 noundef %arity, ptr noundef %domain, ptr noundef %range) #4 comdat align 2 {
entry:
  %this.addr = alloca ptr, align 8
  %name.addr = alloca ptr, align 8
  %arity.addr = alloca i32, align 4
  %domain.addr = alloca ptr, align 8
  %range.addr = alloca ptr, align 8
  store ptr %this, ptr %this.addr, align 8
  store ptr %name, ptr %name.addr, align 8
  store i32 %arity, ptr %arity.addr, align 4
  store ptr %domain, ptr %domain.addr, align 8
  store ptr %range, ptr %range.addr, align 8
  %this1 = load ptr, ptr %this.addr, align 8
  %0 = load ptr, ptr %name.addr, align 8
  %1 = load i32, ptr %arity.addr, align 4
  %2 = load ptr, ptr %domain.addr, align 8
  %3 = load ptr, ptr %range.addr, align 8
  %call = call noundef ptr @_ZN11ast_manager12mk_func_declERK6symboljPKP4sortS4_P14func_decl_info(ptr noundef nonnull align 8 dereferenceable(976) %this1, ptr noundef nonnull align 8 dereferenceable(8) %0, i32 noundef %1, ptr noundef %2, ptr noundef %3, ptr noundef null)
  ret ptr %call
}

; Function Attrs: mustprogress uwtable
define linkonce_odr hidden void @_ZN7obj_refI4sort11ast_managerE7inc_refEv(ptr noundef nonnull align 8 dereferenceable(16) %this) #4 comdat align 2 {
entry:
  %this.addr = alloca ptr, align 8
  store ptr %this, ptr %this.addr, align 8
  %this1 = load ptr, ptr %this.addr, align 8
  %m_obj = getelementptr inbounds %class.obj_ref.201, ptr %this1, i32 0, i32 0
  %0 = load ptr, ptr %m_obj, align 8
  %tobool = icmp ne ptr %0, null
  br i1 %tobool, label %if.then, label %if.end

if.then:                                          ; preds = %entry
  %m_manager = getelementptr inbounds %class.obj_ref.201, ptr %this1, i32 0, i32 1
  %1 = load ptr, ptr %m_manager, align 8
  %m_obj2 = getelementptr inbounds %class.obj_ref.201, ptr %this1, i32 0, i32 0
  %2 = load ptr, ptr %m_obj2, align 8
  call void @_ZN11ast_manager7inc_refEP3ast(ptr noundef nonnull align 8 dereferenceable(976) %1, ptr noundef %2)
  br label %if.end

if.end:                                           ; preds = %if.then, %entry
  ret void
}

; Function Attrs: mustprogress uwtable
define linkonce_odr hidden noundef ptr @_ZN11ast_manager12mk_func_declERK6symbolP4sortS4_S4_(ptr noundef nonnull align 8 dereferenceable(976) %this, ptr noundef nonnull align 8 dereferenceable(8) %name, ptr noundef %domain1, ptr noundef %domain2, ptr noundef %range) #4 comdat align 2 {
entry:
  %this.addr = alloca ptr, align 8
  %name.addr = alloca ptr, align 8
  %domain1.addr = alloca ptr, align 8
  %domain2.addr = alloca ptr, align 8
  %range.addr = alloca ptr, align 8
  %d = alloca [2 x ptr], align 16
  store ptr %this, ptr %this.addr, align 8
  store ptr %name, ptr %name.addr, align 8
  store ptr %domain1, ptr %domain1.addr, align 8
  store ptr %domain2, ptr %domain2.addr, align 8
  store ptr %range, ptr %range.addr, align 8
  %this1 = load ptr, ptr %this.addr, align 8
  %arrayinit.begin = getelementptr inbounds [2 x ptr], ptr %d, i64 0, i64 0
  %0 = load ptr, ptr %domain1.addr, align 8
  store ptr %0, ptr %arrayinit.begin, align 8
  %arrayinit.element = getelementptr inbounds ptr, ptr %arrayinit.begin, i64 1
  %1 = load ptr, ptr %domain2.addr, align 8
  store ptr %1, ptr %arrayinit.element, align 8
  %2 = load ptr, ptr %name.addr, align 8
  %arraydecay = getelementptr inbounds [2 x ptr], ptr %d, i64 0, i64 0
  %3 = load ptr, ptr %range.addr, align 8
  %call = call noundef ptr @_ZN11ast_manager12mk_func_declERK6symboljPKP4sortS4_(ptr noundef nonnull align 8 dereferenceable(976) %this1, ptr noundef nonnull align 8 dereferenceable(8) %2, i32 noundef 2, ptr noundef %arraydecay, ptr noundef %3)
  ret ptr %call
}

; Function Attrs: mustprogress nounwind uwtable
define linkonce_odr hidden noundef ptr @_ZNK7obj_refI4sort11ast_managerEcvPS0_Ev(ptr noundef nonnull align 8 dereferenceable(16) %this) #5 comdat align 2 {
entry:
  %this.addr = alloca ptr, align 8
  store ptr %this, ptr %this.addr, align 8
  %this1 = load ptr, ptr %this.addr, align 8
  %m_obj = getelementptr inbounds %class.obj_ref.201, ptr %this1, i32 0, i32 0
  %0 = load ptr, ptr %m_obj, align 8
  ret ptr %0
}

; Function Attrs: mustprogress uwtable
define linkonce_odr hidden void @_ZN7obj_refI4sort11ast_managerEC2EPS0_RS1_(ptr noundef nonnull align 8 dereferenceable(16) %this, ptr noundef %n, ptr noundef nonnull align 8 dereferenceable(976) %m) unnamed_addr #4 comdat align 2 {
entry:
  %this.addr = alloca ptr, align 8
  %n.addr = alloca ptr, align 8
  %m.addr = alloca ptr, align 8
  store ptr %this, ptr %this.addr, align 8
  store ptr %n, ptr %n.addr, align 8
  store ptr %m, ptr %m.addr, align 8
  %this1 = load ptr, ptr %this.addr, align 8
  %m_obj = getelementptr inbounds %class.obj_ref.201, ptr %this1, i32 0, i32 0
  %0 = load ptr, ptr %n.addr, align 8
  store ptr %0, ptr %m_obj, align 8
  %m_manager = getelementptr inbounds %class.obj_ref.201, ptr %this1, i32 0, i32 1
  %1 = load ptr, ptr %m.addr, align 8
  store ptr %1, ptr %m_manager, align 8
  call void @_ZN7obj_refI4sort11ast_managerE7inc_refEv(ptr noundef nonnull align 8 dereferenceable(16) %this1)
  ret void
}

; Function Attrs: mustprogress nounwind uwtable
define linkonce_odr hidden noundef nonnull align 8 dereferenceable(28) ptr @_ZN7datalog7context13get_decl_utilEv(ptr noundef nonnull align 8 dereferenceable(3556) %this) #5 comdat align 2 {
entry:
  %this.addr = alloca ptr, align 8
  store ptr %this, ptr %this.addr, align 8
  %this1 = load ptr, ptr %this.addr, align 8
  %m_decl_util = getelementptr inbounds %"class.datalog::context", ptr %this1, i32 0, i32 9
  ret ptr %m_decl_util
}

; Function Attrs: mustprogress nounwind uwtable
define linkonce_odr hidden noundef nonnull align 8 dereferenceable(976) ptr @_ZNK7datalog7context11get_managerEv(ptr noundef nonnull align 8 dereferenceable(3556) %this) #5 comdat align 2 {
entry:
  %this.addr = alloca ptr, align 8
  store ptr %this, ptr %this.addr, align 8
  %this1 = load ptr, ptr %this.addr, align 8
  %m = getelementptr inbounds %"class.datalog::context", ptr %this1, i32 0, i32 0
  %0 = load ptr, ptr %m, align 8
  ret ptr %0
}

; Function Attrs: mustprogress uwtable
define hidden noundef ptr @_ZN7datalog15mk_explanations14get_union_declERNS_7contextE(ptr noundef nonnull align 8 dereferenceable(3556) %ctx) #4 align 2 personality ptr @__gxx_personality_v0 {
entry:
  %ctx.addr = alloca ptr, align 8
  %m = alloca ptr, align 8
  %s = alloca %class.obj_ref.201, align 8
  %ref.tmp = alloca %class.symbol, align 8
  %exn.slot = alloca ptr, align 8
  %ehselector.slot = alloca i32, align 4
  store ptr %ctx, ptr %ctx.addr, align 8
  %0 = load ptr, ptr %ctx.addr, align 8
  %call = call noundef nonnull align 8 dereferenceable(976) ptr @_ZNK7datalog7context11get_managerEv(ptr noundef nonnull align 8 dereferenceable(3556) %0)
  store ptr %call, ptr %m, align 8
  %1 = load ptr, ptr %ctx.addr, align 8
  %call1 = call noundef nonnull align 8 dereferenceable(28) ptr @_ZN7datalog7context13get_decl_utilEv(ptr noundef nonnull align 8 dereferenceable(3556) %1)
  %call2 = call noundef ptr @_ZN7datalog12dl_decl_util12mk_rule_sortEv(ptr noundef nonnull align 8 dereferenceable(28) %call1)
  %2 = load ptr, ptr %m, align 8
  call void @_ZN7obj_refI4sort11ast_managerEC2EPS0_RS1_(ptr noundef nonnull align 8 dereferenceable(16) %s, ptr noundef %call2, ptr noundef nonnull align 8 dereferenceable(976) %2)
  %3 = load ptr, ptr %m, align 8
  invoke void @_ZN6symbolC1EPKc(ptr noundef nonnull align 8 dereferenceable(8) %ref.tmp, ptr noundef @.str)
          to label %invoke.cont unwind label %lpad

invoke.cont:                                      ; preds = %entry
  %call4 = invoke noundef ptr @_ZNK7obj_refI4sort11ast_managerEcvPS0_Ev(ptr noundef nonnull align 8 dereferenceable(16) %s)
          to label %invoke.cont3 unwind label %lpad

invoke.cont3:                                     ; preds = %invoke.cont
  %call6 = invoke noundef ptr @_ZNK7obj_refI4sort11ast_managerEcvPS0_Ev(ptr noundef nonnull align 8 dereferenceable(16) %s)
          to label %invoke.cont5 unwind label %lpad

invoke.cont5:                                     ; preds = %invoke.cont3
  %call8 = invoke noundef ptr @_ZNK7obj_refI4sort11ast_managerEcvPS0_Ev(ptr noundef nonnull align 8 dereferenceable(16) %s)
          to label %invoke.cont7 unwind label %lpad

invoke.cont7:                                     ; preds = %invoke.cont5
  %call10 = invoke noundef ptr @_ZN11ast_manager12mk_func_declERK6symbolP4sortS4_S4_(ptr noundef nonnull align 8 dereferenceable(976) %3, ptr noundef nonnull align 8 dereferenceable(8) %ref.tmp, ptr noundef %call4, ptr noundef %call6, ptr noundef %call8)
          to label %invoke.cont9 unwind label %lpad

invoke.cont9:                                     ; preds = %invoke.cont7
  call void @_ZN7obj_refI4sort11ast_managerED2Ev(ptr noundef nonnull align 8 dereferenceable(16) %s) #3
  ret ptr %call10

lpad:                                             ; preds = %invoke.cont7, %invoke.cont5, %invoke.cont3, %invoke.cont, %entry
  %4 = landingpad { ptr, i32 }
          cleanup
  %5 = extractvalue { ptr, i32 } %4, 0
  store ptr %5, ptr %exn.slot, align 8
  %6 = extractvalue { ptr, i32 } %4, 1
  store i32 %6, ptr %ehselector.slot, align 4
  call void @_ZN7obj_refI4sort11ast_managerED2Ev(ptr noundef nonnull align 8 dereferenceable(16) %s) #3
  br label %eh.resume

eh.resume:                                        ; preds = %lpad
  %exn = load ptr, ptr %exn.slot, align 8
  %sel = load i32, ptr %ehselector.slot, align 4
  %lpad.val = insertvalue { ptr, i32 } poison, ptr %exn, 0
  %lpad.val11 = insertvalue { ptr, i32 } %lpad.val, i32 %sel, 1
  resume { ptr, i32 } %lpad.val11
}