; Function Attrs: mustprogress uwtable
define hidden noundef ptr @_ZN7datalog15mk_explanations14get_union_declERNS_7contextE(ptr noundef nonnull align 8 dereferenceable(3556) %ctx) local_unnamed_addr #3 align 2 personality ptr @__gxx_personality_v0 {
entry:
  %d.i = alloca [2 x ptr], align 16
  %s = alloca %class.obj_ref.201, align 8
  %ref.tmp = alloca %class.symbol, align 8
  %0 = load ptr, ptr %ctx, align 8
  %m_decl_util.i = getelementptr inbounds i8, ptr %ctx, i64 56
  %call2 = tail call noundef ptr @_ZN7datalog12dl_decl_util12mk_rule_sortEv(ptr noundef nonnull align 8 dereferenceable(28) %m_decl_util.i)
  store ptr %call2, ptr %s, align 8
  %m_manager.i = getelementptr inbounds i8, ptr %s, i64 8
  store ptr %0, ptr %m_manager.i, align 8
  %tobool.not.i.i = icmp eq ptr %call2, null
  br i1 %tobool.not.i.i, label %_ZN7obj_refI4sort11ast_managerEC2EPS0_RS1_.exit, label %_ZN11ast_manager7inc_refEP3ast.exit.i.i

_ZN11ast_manager7inc_refEP3ast.exit.i.i:          ; preds = %entry
  %m_ref_count.i.i.i.i = getelementptr inbounds i8, ptr %call2, i64 8
  %1 = load i32, ptr %m_ref_count.i.i.i.i, align 4
  %inc.i.i.i.i = add i32 %1, 1
  store i32 %inc.i.i.i.i, ptr %m_ref_count.i.i.i.i, align 4
  br label %_ZN7obj_refI4sort11ast_managerEC2EPS0_RS1_.exit

_ZN7obj_refI4sort11ast_managerEC2EPS0_RS1_.exit:  ; preds = %entry, %_ZN11ast_manager7inc_refEP3ast.exit.i.i
  invoke void @_ZN6symbolC1EPKc(ptr noundef nonnull align 8 dereferenceable(8) %ref.tmp, ptr noundef nonnull @.str)
          to label %invoke.cont unwind label %lpad

invoke.cont:                                      ; preds = %_ZN7obj_refI4sort11ast_managerEC2EPS0_RS1_.exit
  call void @llvm.lifetime.start.p0(i64 16, ptr nonnull %d.i)
  store ptr %call2, ptr %d.i, align 16
  %arrayinit.element.i = getelementptr inbounds i8, ptr %d.i, i64 8
  store ptr %call2, ptr %arrayinit.element.i, align 8
  %call.i.i3 = invoke noundef ptr @_ZN11ast_manager12mk_func_declERK6symboljPKP4sortS4_P14func_decl_info(ptr noundef nonnull align 8 dereferenceable(976) %0, ptr noundef nonnull align 8 dereferenceable(8) %ref.tmp, i32 noundef 2, ptr noundef nonnull %d.i, ptr noundef %call2, ptr noundef null)
          to label %invoke.cont9 unwind label %lpad

invoke.cont9:                                     ; preds = %invoke.cont
  call void @llvm.lifetime.end.p0(i64 16, ptr nonnull %d.i)
  br i1 %tobool.not.i.i, label %_ZN7obj_refI4sort11ast_managerED2Ev.exit, label %if.then.i.i.i

if.then.i.i.i:                                    ; preds = %invoke.cont9
  %m_ref_count.i.i.i.i5 = getelementptr inbounds i8, ptr %call2, i64 8
  %2 = load i32, ptr %m_ref_count.i.i.i.i5, align 4
  %dec.i.i.i.i = add i32 %2, -1
  store i32 %dec.i.i.i.i, ptr %m_ref_count.i.i.i.i5, align 4
  %cmp.i.i.i = icmp eq i32 %dec.i.i.i.i, 0
  br i1 %cmp.i.i.i, label %if.then2.i.i.i, label %_ZN7obj_refI4sort11ast_managerED2Ev.exit

if.then2.i.i.i:                                   ; preds = %if.then.i.i.i
  invoke void @_ZN11ast_manager11delete_nodeEP3ast(ptr noundef nonnull align 8 dereferenceable(976) %0, ptr noundef nonnull %call2)
          to label %_ZN7obj_refI4sort11ast_managerED2Ev.exit unwind label %terminate.lpad.i

terminate.lpad.i:                                 ; preds = %if.then2.i.i.i
  %3 = landingpad { ptr, i32 }
          catch ptr null
  %4 = extractvalue { ptr, i32 } %3, 0
  call void @__clang_call_terminate(ptr %4) #17
  unreachable

_ZN7obj_refI4sort11ast_managerED2Ev.exit:         ; preds = %invoke.cont9, %if.then.i.i.i, %if.then2.i.i.i
  ret ptr %call.i.i3

lpad:                                             ; preds = %invoke.cont, %_ZN7obj_refI4sort11ast_managerEC2EPS0_RS1_.exit
  %5 = landingpad { ptr, i32 }
          cleanup
  call void @_ZN7obj_refI4sort11ast_managerED2Ev(ptr noundef nonnull align 8 dereferenceable(16) %s) #16
  resume { ptr, i32 } %5
}